target datalayout = "e-m:e-p270:32:32-p271:32:32-p272:64:64-i64:64-i128:128-f80:128-n8:16:32:64-S128"
target triple = "x86_64-pc-linux-gnu"

%union.EX_STYPE = type { ptr }
%struct.Exnode_s = type { i64, i64, i8, %union.anon, %union.Exdata_u, i32 }
%union.anon = type { ptr }
%union.Exdata_u = type { %struct.anon.2 }
%struct.anon.2 = type { ptr, ptr, ptr, ptr }
%struct.Expr_s = type { ptr, ptr, [10 x ptr], ptr, ptr, ptr, ptr, ptr, ptr, %struct.agxbuf, %union.EX_STYPE, %struct.Exid_s, [512 x i8], ptr, i32, i32, i32, i64, i64, i32 }
%struct.agxbuf = type { %union.anon.10 }
%union.anon.10 = type { %struct.anon.11 }
%struct.anon.11 = type { ptr, i64, i64, [7 x i8], i8 }
%struct.Exid_s = type { %struct.dtlink_s_, i64, i64, i64, i64, ptr, ptr, [32 x i8] }
%struct.dtlink_s_ = type { ptr, %union.anon.12 }
%union.anon.12 = type { ptr }
%struct.Exdisc_s = type { i64, i64, ptr, ptr, ptr, ptr, ptr, ptr, ptr, ptr, ptr, ptr, ptr, ptr, ptr, ptr, ptr }

; Function Attrs: nounwind uwtable
define ptr @exeval(ptr noundef %0, ptr noundef %1, ptr noundef %2) #0 {
  %4 = alloca %union.EX_STYPE, align 8
  %5 = alloca ptr, align 8
  %6 = alloca ptr, align 8
  %7 = alloca ptr, align 8
  %8 = alloca %union.EX_STYPE, align 8
  %9 = alloca %union.EX_STYPE, align 8
  %10 = alloca i32, align 4
  store ptr %0, ptr %5, align 8, !tbaa !3
  store ptr %1, ptr %6, align 8, !tbaa !8
  store ptr %2, ptr %7, align 8, !tbaa !10
  call void @llvm.lifetime.start.p0(i64 8, ptr %8) #15
  %11 = load ptr, ptr %6, align 8, !tbaa !8
  %12 = getelementptr inbounds nuw %struct.Exnode_s, ptr %11, i32 0, i32 3
  %13 = load ptr, ptr %12, align 8, !tbaa !11
  %14 = icmp ne ptr %13, null
  br i1 %14, label %15, label %50

15:                                               ; preds = %3
  %16 = load ptr, ptr %6, align 8, !tbaa !8
  %17 = getelementptr inbounds nuw %struct.Exnode_s, ptr %16, i32 0, i32 0
  %18 = load i64, ptr %17, align 8, !tbaa !12
  switch i64 %18, label %39 [
    i64 262, label %19
    i64 263, label %29
  ]

19:                                               ; preds = %15
  %20 = load ptr, ptr %6, align 8, !tbaa !8
  %21 = getelementptr inbounds nuw %struct.Exnode_s, ptr %20, i32 0, i32 3
  %22 = load ptr, ptr %21, align 8, !tbaa !11
  %23 = load ptr, ptr %5, align 8, !tbaa !3
  %24 = getelementptr inbounds nuw %struct.Expr_s, ptr %23, i32 0, i32 6
  %25 = load ptr, ptr %24, align 8, !tbaa !17
  %26 = getelementptr inbounds nuw %struct.Exdisc_s, ptr %25, i32 0, i32 3
  %27 = load ptr, ptr %26, align 8, !tbaa !29
  %28 = call double %22(ptr noundef %27)
  store double %28, ptr %8, align 8, !tbaa !11
  br label %49

29:                                               ; preds = %15
  %30 = load ptr, ptr %6, align 8, !tbaa !8
  %31 = getelementptr inbounds nuw %struct.Exnode_s, ptr %30, i32 0, i32 3
  %32 = load ptr, ptr %31, align 8, !tbaa !11
  %33 = load ptr, ptr %5, align 8, !tbaa !3
  %34 = getelementptr inbounds nuw %struct.Expr_s, ptr %33, i32 0, i32 6
  %35 = load ptr, ptr %34, align 8, !tbaa !17
  %36 = getelementptr inbounds nuw %struct.Exdisc_s, ptr %35, i32 0, i32 3
  %37 = load ptr, ptr %36, align 8, !tbaa !29
  %38 = call ptr %32(ptr noundef %37)
  store ptr %38, ptr %8, align 8, !tbaa !11
  br label %49

39:                                               ; preds = %15
  %40 = load ptr, ptr %6, align 8, !tbaa !8
  %41 = getelementptr inbounds nuw %struct.Exnode_s, ptr %40, i32 0, i32 3
  %42 = load ptr, ptr %41, align 8, !tbaa !11
  %43 = load ptr, ptr %5, align 8, !tbaa !3
  %44 = getelementptr inbounds nuw %struct.Expr_s, ptr %43, i32 0, i32 6
  %45 = load ptr, ptr %44, align 8, !tbaa !17
  %46 = getelementptr inbounds nuw %struct.Exdisc_s, ptr %45, i32 0, i32 3
  %47 = load ptr, ptr %46, align 8, !tbaa !29
  %48 = call i64 %42(ptr noundef %47)
  store i64 %48, ptr %8, align 8, !tbaa !11
  br label %49

49:                                               ; preds = %39, %29, %19
  br label %72

50:                                               ; preds = %3
  call void @llvm.lifetime.start.p0(i64 8, ptr %9) #15
  %51 = load ptr, ptr %5, align 8, !tbaa !3
  %52 = load ptr, ptr %6, align 8, !tbaa !8
  %53 = load ptr, ptr %7, align 8, !tbaa !10
  %54 = call ptr @eval(ptr noundef %51, ptr noundef %52, ptr noundef %53)
  %55 = getelementptr inbounds nuw %union.EX_STYPE, ptr %9, i32 0, i32 0
  store ptr %54, ptr %55, align 8
  call void @llvm.memcpy.p0.p0.i64(ptr align 8 %8, ptr align 8 %9, i64 8, i1 false), !tbaa.struct !34
  call void @llvm.lifetime.end.p0(i64 8, ptr %9) #15
  %56 = load ptr, ptr %5, align 8, !tbaa !3
  %57 = getelementptr inbounds nuw %struct.Expr_s, ptr %56, i32 0, i32 17
  %58 = load i64, ptr %57, align 8, !tbaa !35
  %59 = icmp sgt i64 %58, 0
  br i1 %59, label %60, label %71

60:                                               ; preds = %50
  %61 = load ptr, ptr %5, align 8, !tbaa !3
  %62 = getelementptr inbounds nuw %struct.Expr_s, ptr %61, i32 0, i32 17
  store i64 0, ptr %62, align 8, !tbaa !35
  %63 = load ptr, ptr %5, align 8, !tbaa !3
  %64 = getelementptr inbounds nuw %struct.Expr_s, ptr %63, i32 0, i32 18
  %65 = load i64, ptr %64, align 8, !tbaa !36
  %66 = icmp eq i64 %65, 295
  br i1 %66, label %67, label %70

67:                                               ; preds = %60
  %68 = load ptr, ptr %5, align 8, !tbaa !3
  %69 = getelementptr inbounds nuw %struct.Expr_s, ptr %68, i32 0, i32 10
  call void @llvm.memcpy.p0.p0.i64(ptr align 8 %4, ptr align 8 %69, i64 8, i1 false), !tbaa.struct !34
  store i32 1, ptr %10, align 4
  br label %73

70:                                               ; preds = %60
  br label %71

71:                                               ; preds = %70, %50
  br label %72

72:                                               ; preds = %71, %49
  call void @llvm.memcpy.p0.p0.i64(ptr align 8 %4, ptr align 8 %8, i64 8, i1 false), !tbaa.struct !34
  store i32 1, ptr %10, align 4
  br label %73

73:                                               ; preds = %72, %67
  call void @llvm.lifetime.end.p0(i64 8, ptr %8) #15
  %74 = getelementptr inbounds nuw %union.EX_STYPE, ptr %4, i32 0, i32 0
  %75 = load ptr, ptr %74, align 8
  ret ptr %75
}