; Function Attrs: nounwind uwtable
define ptr @exeval(ptr noundef %0, ptr noundef %1, ptr noundef %2) local_unnamed_addr #0 {
  %.sroa.01 = alloca ptr, align 8
  call void @llvm.lifetime.start.p0(i64 8, ptr nonnull %.sroa.01)
  %4 = getelementptr inbounds nuw i8, ptr %1, i64 24
  %5 = load ptr, ptr %4, align 8, !tbaa !3
  %.not = icmp eq ptr %5, null
  br i1 %.not, label %21, label %6

6:                                                ; preds = %3
  %7 = load i64, ptr %1, align 8, !tbaa !6
  %8 = getelementptr inbounds nuw i8, ptr %0, i64 120
  %9 = load ptr, ptr %8, align 8, !tbaa !11
  %10 = getelementptr inbounds nuw i8, ptr %9, i64 24
  %11 = load ptr, ptr %10, align 8, !tbaa !26
  switch i64 %7, label %18 [
    i64 262, label %12
    i64 263, label %16
  ]

12:                                               ; preds = %6
  %13 = tail call double %5(ptr noundef %11) #25
  %14 = bitcast double %13 to i64
  %15 = inttoptr i64 %14 to ptr
  br label %31

16:                                               ; preds = %6
  %17 = tail call ptr %5(ptr noundef %11) #25
  br label %31

18:                                               ; preds = %6
  %19 = tail call i64 %5(ptr noundef %11) #25
  %20 = inttoptr i64 %19 to ptr
  br label %31

21:                                               ; preds = %3
  %22 = tail call fastcc ptr @eval(ptr noundef %0, ptr noundef nonnull %1, ptr noundef %2)
  store ptr %22, ptr %.sroa.01, align 8, !tbaa !3
  %23 = getelementptr inbounds nuw i8, ptr %0, i64 816
  %24 = load i64, ptr %23, align 8, !tbaa !31
  %25 = icmp sgt i64 %24, 0
  br i1 %25, label %26, label %31

26:                                               ; preds = %21
  store i64 0, ptr %23, align 8, !tbaa !31
  %27 = getelementptr inbounds nuw i8, ptr %0, i64 824
  %28 = load i64, ptr %27, align 8, !tbaa !32
  %29 = icmp eq i64 %28, 295
  %30 = getelementptr inbounds nuw i8, ptr %0, i64 176
  %spec.select = select i1 %29, ptr %30, ptr %.sroa.01
  %.sroa.016.0.pre = load ptr, ptr %spec.select, align 8, !tbaa !3
  br label %31

31:                                               ; preds = %26, %18, %16, %12, %21
  %.sroa.016.0 = phi ptr [ %22, %21 ], [ %15, %12 ], [ %17, %16 ], [ %20, %18 ], [ %.sroa.016.0.pre, %26 ]
  call void @llvm.lifetime.end.p0(i64 8, ptr nonnull %.sroa.01)
  ret ptr %.sroa.016.0
}